target datalayout = "e-m:e-p270:32:32-p271:32:32-p272:64:64-i64:64-i128:128-f80:128-n8:16:32:64-S128"
target triple = "x86_64-pc-linux-gnu"

%struct.tlv_info_t = type { i8, i8, i8, i8, i32, i32 }
%struct._packet_info = type { ptr, ptr, i32, i32, %struct.nstime_t, %struct.nstime_t, %struct.nstime_t, i8, ptr, ptr, ptr, ptr, %struct._address, %struct._address, %struct._address, %struct._address, %struct._address, %struct._address, i32, ptr, i8, [3 x i8], %struct.anon, i32, i32, i32, i32, ptr, i8, ptr, ptr, i16, i16, i32, i32, i16, i32, i32, ptr, ptr, ptr, i8, i8, i16, i16, i16, i32, i16, i16, ptr, ptr, ptr, ptr, ptr, i32, i32 }
%struct.nstime_t = type { i64, i32 }
%struct._address = type { i32, i32, ptr, ptr }
%struct.anon = type { i8, [3 x i8] }

@ett_mac_mgmt_msg_reg_req_decoder = internal global i32 0, align 4
@hf_tlv_type = internal global i32 0, align 4
@.str.2 = private unnamed_addr constant [18 x i8] c"REG-REQ TLV error\00", align 1
@hf_reg_invalid_tlv = internal global i32 0, align 4
@hf_reg_tlv_t_46_handover_indication_readiness_timer = internal global i32 0, align 4
@hf_idle_mode_timeout = internal global i32 0, align 4
@hf_reg_req_tlv_t_45_ms_periodic_ranging_timer = internal global i32 0, align 4
@hf_ms_previous_ip_address_v4 = internal global i32 0, align 4
@hf_ms_previous_ip_address_v6 = internal global i32 0, align 4
@hf_reg_req_secondary_mgmt_cid = internal global i32 0, align 4
@hf_reg_req_tlv_t_32_sleep_mode_recovery_time = internal global i32 0, align 4
@proto_mac_mgmt_msg_reg_req_decoder = internal global i32 0, align 4
@.str.219 = private unnamed_addr constant [32 x i8] c"MAC Management Message, REG-REQ\00", align 1
@.str.220 = private unnamed_addr constant [30 x i8] c"Uplink Service Flow Encodings\00", align 1
@.str.221 = private unnamed_addr constant [32 x i8] c"Downlink Service Flow Encodings\00", align 1
@.str.222 = private unnamed_addr constant [11 x i8] c"HMAC Tuple\00", align 1
@.str.223 = private unnamed_addr constant [11 x i8] c"CMAC Tuple\00", align 1
@.str.224 = private unnamed_addr constant [27 x i8] c" (HMAC Tuple is missing !)\00", align 1

; Function Attrs: null_pointer_is_valid sspstrong uwtable
define internal i32 @dissect_mac_mgmt_msg_reg_req_decoder(ptr noundef %0, ptr noundef %1, ptr noundef %2, ptr noundef %3) #0 {
  %5 = alloca ptr, align 8
  %6 = alloca ptr, align 8
  %7 = alloca ptr, align 8
  %8 = alloca ptr, align 8
  %9 = alloca i32, align 4
  %10 = alloca i32, align 4
  %11 = alloca i32, align 4
  %12 = alloca ptr, align 8
  %13 = alloca ptr, align 8
  %14 = alloca ptr, align 8
  %15 = alloca i8, align 1
  %16 = alloca %struct.tlv_info_t, align 4
  %17 = alloca i32, align 4
  %18 = alloca i32, align 4
  store ptr %0, ptr %5, align 8
  store ptr %1, ptr %6, align 8
  store ptr %2, ptr %7, align 8
  store ptr %3, ptr %8, align 8
  call void @llvm.lifetime.start.p0(i64 4, ptr %9) #3
  store i32 0, ptr %9, align 4
  call void @llvm.lifetime.start.p0(i64 4, ptr %10) #3
  call void @llvm.lifetime.start.p0(i64 4, ptr %11) #3
  call void @llvm.lifetime.start.p0(i64 8, ptr %12) #3
  store ptr null, ptr %12, align 8
  call void @llvm.lifetime.start.p0(i64 8, ptr %13) #3
  store ptr null, ptr %13, align 8
  call void @llvm.lifetime.start.p0(i64 8, ptr %14) #3
  store ptr null, ptr %14, align 8
  call void @llvm.lifetime.start.p0(i64 1, ptr %15) #3
  store i8 0, ptr %15, align 1
  call void @llvm.lifetime.start.p0(i64 12, ptr %16) #3
  call void @llvm.lifetime.start.p0(i64 4, ptr %17) #3
  call void @llvm.lifetime.start.p0(i64 4, ptr %18) #3
  %19 = load ptr, ptr %5, align 8
  %20 = call i32 @tvb_reported_length(ptr noundef %19)
  store i32 %20, ptr %11, align 4
  %21 = load ptr, ptr %7, align 8
  %22 = load i32, ptr @proto_mac_mgmt_msg_reg_req_decoder, align 4
  %23 = load ptr, ptr %5, align 8
  %24 = load i32, ptr %9, align 4
  %25 = load i32, ptr %11, align 4
  %26 = call ptr (ptr, i32, ptr, i32, i32, ptr, ...) @proto_tree_add_protocol_format(ptr noundef %21, i32 noundef %22, ptr noundef %23, i32 noundef %24, i32 noundef %25, ptr noundef @.str.219)
  store ptr %26, ptr %12, align 8
  %27 = load ptr, ptr %12, align 8
  %28 = load i32, ptr @ett_mac_mgmt_msg_reg_req_decoder, align 4
  %29 = call ptr @proto_item_add_subtree(ptr noundef %27, i32 noundef %28)
  store ptr %29, ptr %13, align 8
  br label %30

30:                                               ; preds = %182, %4
  %31 = load i32, ptr %9, align 4
  %32 = load i32, ptr %11, align 4
  %33 = icmp ult i32 %31, %32
  br i1 %33, label %34, label %186

34:                                               ; preds = %30
  %35 = load ptr, ptr %5, align 8
  %36 = load i32, ptr %9, align 4
  %37 = call i32 @init_tlv_info(ptr noundef %16, ptr noundef %35, i32 noundef %36)
  %38 = call i32 @get_tlv_type(ptr noundef %16)
  store i32 %38, ptr %17, align 4
  %39 = call i32 @get_tlv_length(ptr noundef %16)
  store i32 %39, ptr %18, align 4
  %40 = load i32, ptr %17, align 4
  %41 = icmp eq i32 %40, -1
  br i1 %41, label %48, label %42

42:                                               ; preds = %34
  %43 = load i32, ptr %18, align 4
  %44 = icmp sgt i32 %43, 64000
  br i1 %44, label %48, label %45

45:                                               ; preds = %42
  %46 = load i32, ptr %18, align 4
  %47 = icmp slt i32 %46, 1
  br i1 %47, label %48, label %60

48:                                               ; preds = %45, %42, %34
  %49 = load ptr, ptr %6, align 8
  %50 = getelementptr inbounds nuw %struct._packet_info, ptr %49, i32 0, i32 1
  %51 = load ptr, ptr %50, align 8
  call void @col_append_sep_str(ptr noundef %51, i32 noundef 25, ptr noundef null, ptr noundef @.str.2)
  %52 = load ptr, ptr %13, align 8
  %53 = load i32, ptr @hf_reg_invalid_tlv, align 4
  %54 = load ptr, ptr %5, align 8
  %55 = load i32, ptr %9, align 4
  %56 = load i32, ptr %11, align 4
  %57 = load i32, ptr %9, align 4
  %58 = sub i32 %56, %57
  %59 = call ptr @proto_tree_add_item(ptr noundef %52, i32 noundef %53, ptr noundef %54, i32 noundef %55, i32 noundef %58, i32 noundef 0)
  br label %186

60:                                               ; preds = %45
  %61 = load i32, ptr %9, align 4
  %62 = call i32 @get_tlv_value_offset(ptr noundef %16)
  %63 = add i32 %61, %62
  store i32 %63, ptr %10, align 4
  %64 = load i32, ptr %17, align 4
  switch i32 %64, label %176 [
    i32 1, label %65
    i32 2, label %65
    i32 3, label %65
    i32 4, label %65
    i32 6, label %65
    i32 7, label %65
    i32 8, label %65
    i32 9, label %65
    i32 10, label %65
    i32 11, label %65
    i32 12, label %65
    i32 13, label %65
    i32 14, label %65
    i32 15, label %65
    i32 18, label %65
    i32 20, label %65
    i32 21, label %65
    i32 22, label %65
    i32 23, label %65
    i32 26, label %65
    i32 27, label %65
    i32 29, label %65
    i32 31, label %65
    i32 40, label %65
    i32 41, label %65
    i32 42, label %65
    i32 43, label %65
    i32 47, label %65
    i32 48, label %65
    i32 5, label %74
    i32 32, label %80
    i32 33, label %86
    i32 37, label %106
    i32 45, label %112
    i32 46, label %118
    i32 145, label %124
    i32 146, label %138
    i32 149, label %152
    i32 141, label %164
  ]

65:                                               ; preds = %60, %60, %60, %60, %60, %60, %60, %60, %60, %60, %60, %60, %60, %60, %60, %60, %60, %60, %60, %60, %60, %60, %60, %60, %60, %60, %60, %60, %60
  %66 = load ptr, ptr %13, align 8
  %67 = load i32, ptr %17, align 4
  %68 = load ptr, ptr %5, align 8
  %69 = load i32, ptr %10, align 4
  %70 = load i32, ptr %18, align 4
  %71 = load ptr, ptr %6, align 8
  %72 = load i32, ptr %9, align 4
  %73 = load i32, ptr @proto_mac_mgmt_msg_reg_req_decoder, align 4
  call void @dissect_extended_tlv(ptr noundef %66, i32 noundef %67, ptr noundef %68, i32 noundef %69, i32 noundef %70, ptr noundef %71, i32 noundef %72, i32 noundef %73)
  br label %182

74:                                               ; preds = %60
  %75 = load ptr, ptr %13, align 8
  %76 = load i32, ptr @hf_reg_req_secondary_mgmt_cid, align 4
  %77 = load ptr, ptr %5, align 8
  %78 = load i32, ptr %9, align 4
  %79 = call ptr @add_tlv_subtree(ptr noundef %16, ptr noundef %75, i32 noundef %76, ptr noundef %77, i32 noundef %78, i32 noundef 0)
  br label %182

80:                                               ; preds = %60
  %81 = load ptr, ptr %13, align 8
  %82 = load i32, ptr @hf_reg_req_tlv_t_32_sleep_mode_recovery_time, align 4
  %83 = load ptr, ptr %5, align 8
  %84 = load i32, ptr %9, align 4
  %85 = call ptr @add_tlv_subtree(ptr noundef %16, ptr noundef %81, i32 noundef %82, ptr noundef %83, i32 noundef %84, i32 noundef 0)
  br label %182

86:                                               ; preds = %60
  %87 = load i32, ptr %18, align 4
  %88 = icmp eq i32 %87, 4
  br i1 %88, label %89, label %95

89:                                               ; preds = %86
  %90 = load ptr, ptr %13, align 8
  %91 = load i32, ptr @hf_ms_previous_ip_address_v4, align 4
  %92 = load ptr, ptr %5, align 8
  %93 = load i32, ptr %9, align 4
  %94 = call ptr @add_tlv_subtree(ptr noundef %16, ptr noundef %90, i32 noundef %91, ptr noundef %92, i32 noundef %93, i32 noundef 0)
  br label %105

95:                                               ; preds = %86
  %96 = load i32, ptr %18, align 4
  %97 = icmp eq i32 %96, 16
  br i1 %97, label %98, label %104

98:                                               ; preds = %95
  %99 = load ptr, ptr %13, align 8
  %100 = load i32, ptr @hf_ms_previous_ip_address_v6, align 4
  %101 = load ptr, ptr %5, align 8
  %102 = load i32, ptr %9, align 4
  %103 = call ptr @add_tlv_subtree(ptr noundef %16, ptr noundef %99, i32 noundef %100, ptr noundef %101, i32 noundef %102, i32 noundef 0)
  br label %104

104:                                              ; preds = %98, %95
  br label %105

105:                                              ; preds = %104, %89
  br label %182

106:                                              ; preds = %60
  %107 = load ptr, ptr %13, align 8
  %108 = load i32, ptr @hf_idle_mode_timeout, align 4
  %109 = load ptr, ptr %5, align 8
  %110 = load i32, ptr %9, align 4
  %111 = call ptr @add_tlv_subtree(ptr noundef %16, ptr noundef %107, i32 noundef %108, ptr noundef %109, i32 noundef %110, i32 noundef 0)
  br label %182

112:                                              ; preds = %60
  %113 = load ptr, ptr %13, align 8
  %114 = load i32, ptr @hf_reg_req_tlv_t_45_ms_periodic_ranging_timer, align 4
  %115 = load ptr, ptr %5, align 8
  %116 = load i32, ptr %9, align 4
  %117 = call ptr @add_tlv_subtree(ptr noundef %16, ptr noundef %113, i32 noundef %114, ptr noundef %115, i32 noundef %116, i32 noundef 0)
  br label %182

118:                                              ; preds = %60
  %119 = load ptr, ptr %13, align 8
  %120 = load i32, ptr @hf_reg_tlv_t_46_handover_indication_readiness_timer, align 4
  %121 = load ptr, ptr %5, align 8
  %122 = load i32, ptr %9, align 4
  %123 = call ptr @add_tlv_subtree(ptr noundef %16, ptr noundef %119, i32 noundef %120, ptr noundef %121, i32 noundef %122, i32 noundef 0)
  br label %182

124:                                              ; preds = %60
  %125 = load i32, ptr @ett_mac_mgmt_msg_reg_req_decoder, align 4
  %126 = load ptr, ptr %13, align 8
  %127 = load i32, ptr @proto_mac_mgmt_msg_reg_req_decoder, align 4
  %128 = load ptr, ptr %5, align 8
  %129 = load i32, ptr %9, align 4
  %130 = load i32, ptr %18, align 4
  %131 = call ptr @add_protocol_subtree(ptr noundef %16, i32 noundef %125, ptr noundef %126, i32 noundef %127, ptr noundef %128, i32 noundef %129, i32 noundef %130, ptr noundef @.str.220)
  store ptr %131, ptr %14, align 8
  %132 = load ptr, ptr %5, align 8
  %133 = load i32, ptr %10, align 4
  %134 = load i32, ptr %18, align 4
  %135 = call ptr @tvb_new_subset_length(ptr noundef %132, i32 noundef %133, i32 noundef %134)
  %136 = load ptr, ptr %6, align 8
  %137 = load ptr, ptr %14, align 8
  call void @wimax_service_flow_encodings_decoder(ptr noundef %135, ptr noundef %136, ptr noundef %137)
  br label %182

138:                                              ; preds = %60
  %139 = load i32, ptr @ett_mac_mgmt_msg_reg_req_decoder, align 4
  %140 = load ptr, ptr %13, align 8
  %141 = load i32, ptr @proto_mac_mgmt_msg_reg_req_decoder, align 4
  %142 = load ptr, ptr %5, align 8
  %143 = load i32, ptr %9, align 4
  %144 = load i32, ptr %18, align 4
  %145 = call ptr @add_protocol_subtree(ptr noundef %16, i32 noundef %139, ptr noundef %140, i32 noundef %141, ptr noundef %142, i32 noundef %143, i32 noundef %144, ptr noundef @.str.221)
  store ptr %145, ptr %14, align 8
  %146 = load ptr, ptr %5, align 8
  %147 = load i32, ptr %10, align 4
  %148 = load i32, ptr %18, align 4
  %149 = call ptr @tvb_new_subset_length(ptr noundef %146, i32 noundef %147, i32 noundef %148)
  %150 = load ptr, ptr %6, align 8
  %151 = load ptr, ptr %14, align 8
  call void @wimax_service_flow_encodings_decoder(ptr noundef %149, ptr noundef %150, ptr noundef %151)
  br label %182

152:                                              ; preds = %60
  %153 = load i32, ptr @ett_mac_mgmt_msg_reg_req_decoder, align 4
  %154 = load ptr, ptr %13, align 8
  %155 = load i32, ptr @proto_mac_mgmt_msg_reg_req_decoder, align 4
  %156 = load ptr, ptr %5, align 8
  %157 = load i32, ptr %9, align 4
  %158 = load i32, ptr %18, align 4
  %159 = call ptr @add_protocol_subtree(ptr noundef %16, i32 noundef %153, ptr noundef %154, i32 noundef %155, ptr noundef %156, i32 noundef %157, i32 noundef %158, ptr noundef @.str.222)
  store ptr %159, ptr %14, align 8
  %160 = load ptr, ptr %14, align 8
  %161 = load ptr, ptr %5, align 8
  %162 = load i32, ptr %10, align 4
  %163 = load i32, ptr %18, align 4
  call void @wimax_hmac_tuple_decoder(ptr noundef %160, ptr noundef %161, i32 noundef %162, i32 noundef %163)
  store i8 1, ptr %15, align 1
  br label %182

164:                                              ; preds = %60
  %165 = load i32, ptr @ett_mac_mgmt_msg_reg_req_decoder, align 4
  %166 = load ptr, ptr %13, align 8
  %167 = load i32, ptr @proto_mac_mgmt_msg_reg_req_decoder, align 4
  %168 = load ptr, ptr %5, align 8
  %169 = load i32, ptr %9, align 4
  %170 = load i32, ptr %18, align 4
  %171 = call ptr @add_protocol_subtree(ptr noundef %16, i32 noundef %165, ptr noundef %166, i32 noundef %167, ptr noundef %168, i32 noundef %169, i32 noundef %170, ptr noundef @.str.223)
  store ptr %171, ptr %14, align 8
  %172 = load ptr, ptr %14, align 8
  %173 = load ptr, ptr %5, align 8
  %174 = load i32, ptr %10, align 4
  %175 = load i32, ptr %18, align 4
  call void @wimax_cmac_tuple_decoder(ptr noundef %172, ptr noundef %173, i32 noundef %174, i32 noundef %175)
  br label %182

176:                                              ; preds = %60
  %177 = load ptr, ptr %13, align 8
  %178 = load i32, ptr @hf_tlv_type, align 4
  %179 = load ptr, ptr %5, align 8
  %180 = load i32, ptr %9, align 4
  %181 = call ptr @add_tlv_subtree(ptr noundef %16, ptr noundef %177, i32 noundef %178, ptr noundef %179, i32 noundef %180, i32 noundef 0)
  br label %182

182:                                              ; preds = %176, %164, %152, %138, %124, %118, %112, %106, %105, %80, %74, %65
  %183 = load i32, ptr %18, align 4
  %184 = load i32, ptr %10, align 4
  %185 = add i32 %183, %184
  store i32 %185, ptr %9, align 4
  br label %30, !llvm.loop !10

186:                                              ; preds = %48, %30
  %187 = load i8, ptr %15, align 1, !range !6, !noundef !7
  %188 = trunc i8 %187 to i1
  br i1 %188, label %191, label %189

189:                                              ; preds = %186
  %190 = load ptr, ptr %13, align 8
  call void (ptr, ptr, ...) @proto_item_append_text(ptr noundef %190, ptr noundef @.str.224)
  br label %191

191:                                              ; preds = %189, %186
  %192 = load ptr, ptr %5, align 8
  %193 = call i32 @tvb_captured_length(ptr noundef %192)
  call void @llvm.lifetime.end.p0(i64 4, ptr %18) #3
  call void @llvm.lifetime.end.p0(i64 4, ptr %17) #3
  call void @llvm.lifetime.end.p0(i64 12, ptr %16) #3
  call void @llvm.lifetime.end.p0(i64 1, ptr %15) #3
  call void @llvm.lifetime.end.p0(i64 8, ptr %14) #3
  call void @llvm.lifetime.end.p0(i64 8, ptr %13) #3
  call void @llvm.lifetime.end.p0(i64 8, ptr %12) #3
  call void @llvm.lifetime.end.p0(i64 4, ptr %11) #3
  call void @llvm.lifetime.end.p0(i64 4, ptr %10) #3
  call void @llvm.lifetime.end.p0(i64 4, ptr %9) #3
  ret i32 %193
}