; Function Attrs: null_pointer_is_valid sspstrong uwtable
define internal i32 @dissect_mac_mgmt_msg_reg_req_decoder(ptr noundef %0, ptr noundef %1, ptr noundef %2, ptr readnone captures(none) %3) #0 {
  %5 = alloca %struct.tlv_info_t, align 4
  call void @llvm.lifetime.start.p0(i64 12, ptr nonnull %5) #3
  %6 = tail call i32 @tvb_reported_length(ptr noundef %0)
  %7 = load i32, ptr @proto_mac_mgmt_msg_reg_req_decoder, align 4
  %8 = tail call ptr (ptr, i32, ptr, i32, i32, ptr, ...) @proto_tree_add_protocol_format(ptr noundef %2, i32 noundef %7, ptr noundef %0, i32 noundef 0, i32 noundef %6, ptr noundef nonnull @.str.219)
  %9 = load i32, ptr @ett_mac_mgmt_msg_reg_req_decoder, align 4
  %10 = tail call ptr @proto_item_add_subtree(ptr noundef %8, i32 noundef %9)
  %.not = icmp eq i32 %6, 0
  br i1 %.not, label %.critedge, label %.lr.ph

.lr.ph:                                           ; preds = %4, %71
  %.0103 = phi i32 [ %72, %71 ], [ 0, %4 ]
  %.095102 = phi i1 [ %.1, %71 ], [ false, %4 ]
  %11 = call i32 @init_tlv_info(ptr noundef nonnull %5, ptr noundef %0, i32 noundef %.0103)
  %12 = call i32 @get_tlv_type(ptr noundef nonnull %5)
  %13 = call i32 @get_tlv_length(ptr noundef nonnull %5)
  %14 = icmp eq i32 %12, -1
  %15 = add i32 %13, -64001
  %16 = icmp ult i32 %15, -64000
  %or.cond3 = select i1 %14, i1 true, i1 %16
  br i1 %or.cond3, label %17, label %23

17:                                               ; preds = %.lr.ph
  %18 = getelementptr inbounds nuw i8, ptr %1, i64 8
  %19 = load ptr, ptr %18, align 8
  call void @col_append_sep_str(ptr noundef %19, i32 noundef 25, ptr noundef null, ptr noundef nonnull @.str.2)
  %20 = load i32, ptr @hf_reg_invalid_tlv, align 4
  %21 = sub i32 %6, %.0103
  %22 = call ptr @proto_tree_add_item(ptr noundef %10, i32 noundef %20, ptr noundef %0, i32 noundef %.0103, i32 noundef %21, i32 noundef 0)
  br i1 %.095102, label %74, label %.critedge

23:                                               ; preds = %.lr.ph
  %24 = call i32 @get_tlv_value_offset(ptr noundef nonnull %5)
  %25 = add i32 %24, %.0103
  switch i32 %12, label %68 [
    i32 1, label %26
    i32 2, label %26
    i32 3, label %26
    i32 4, label %26
    i32 6, label %26
    i32 7, label %26
    i32 8, label %26
    i32 9, label %26
    i32 10, label %26
    i32 11, label %26
    i32 12, label %26
    i32 13, label %26
    i32 14, label %26
    i32 15, label %26
    i32 18, label %26
    i32 20, label %26
    i32 21, label %26
    i32 22, label %26
    i32 23, label %26
    i32 26, label %26
    i32 27, label %26
    i32 29, label %26
    i32 31, label %26
    i32 40, label %26
    i32 41, label %26
    i32 42, label %26
    i32 43, label %26
    i32 47, label %26
    i32 48, label %26
    i32 5, label %28
    i32 32, label %31
    i32 33, label %34
    i32 37, label %41
    i32 45, label %44
    i32 46, label %47
    i32 145, label %50
    i32 146, label %55
    i32 149, label %60
    i32 141, label %64
  ]

26:                                               ; preds = %23, %23, %23, %23, %23, %23, %23, %23, %23, %23, %23, %23, %23, %23, %23, %23, %23, %23, %23, %23, %23, %23, %23, %23, %23, %23, %23, %23, %23
  %27 = load i32, ptr @proto_mac_mgmt_msg_reg_req_decoder, align 4
  call void @dissect_extended_tlv(ptr noundef %10, i32 noundef %12, ptr noundef %0, i32 noundef %25, i32 noundef %13, ptr noundef %1, i32 noundef %.0103, i32 noundef %27)
  br label %71

28:                                               ; preds = %23
  %29 = load i32, ptr @hf_reg_req_secondary_mgmt_cid, align 4
  %30 = call ptr @add_tlv_subtree(ptr noundef nonnull %5, ptr noundef %10, i32 noundef %29, ptr noundef %0, i32 noundef %.0103, i32 noundef 0)
  br label %71

31:                                               ; preds = %23
  %32 = load i32, ptr @hf_reg_req_tlv_t_32_sleep_mode_recovery_time, align 4
  %33 = call ptr @add_tlv_subtree(ptr noundef nonnull %5, ptr noundef %10, i32 noundef %32, ptr noundef %0, i32 noundef %.0103, i32 noundef 0)
  br label %71

34:                                               ; preds = %23
  %trunc = trunc nuw i32 %13 to i16
  switch i16 %trunc, label %71 [
    i16 4, label %35
    i16 16, label %38
  ]

35:                                               ; preds = %34
  %36 = load i32, ptr @hf_ms_previous_ip_address_v4, align 4
  %37 = call ptr @add_tlv_subtree(ptr noundef nonnull %5, ptr noundef %10, i32 noundef %36, ptr noundef %0, i32 noundef %.0103, i32 noundef 0)
  br label %71

38:                                               ; preds = %34
  %39 = load i32, ptr @hf_ms_previous_ip_address_v6, align 4
  %40 = call ptr @add_tlv_subtree(ptr noundef nonnull %5, ptr noundef %10, i32 noundef %39, ptr noundef %0, i32 noundef %.0103, i32 noundef 0)
  br label %71

41:                                               ; preds = %23
  %42 = load i32, ptr @hf_idle_mode_timeout, align 4
  %43 = call ptr @add_tlv_subtree(ptr noundef nonnull %5, ptr noundef %10, i32 noundef %42, ptr noundef %0, i32 noundef %.0103, i32 noundef 0)
  br label %71

44:                                               ; preds = %23
  %45 = load i32, ptr @hf_reg_req_tlv_t_45_ms_periodic_ranging_timer, align 4
  %46 = call ptr @add_tlv_subtree(ptr noundef nonnull %5, ptr noundef %10, i32 noundef %45, ptr noundef %0, i32 noundef %.0103, i32 noundef 0)
  br label %71

47:                                               ; preds = %23
  %48 = load i32, ptr @hf_reg_tlv_t_46_handover_indication_readiness_timer, align 4
  %49 = call ptr @add_tlv_subtree(ptr noundef nonnull %5, ptr noundef %10, i32 noundef %48, ptr noundef %0, i32 noundef %.0103, i32 noundef 0)
  br label %71

50:                                               ; preds = %23
  %51 = load i32, ptr @ett_mac_mgmt_msg_reg_req_decoder, align 4
  %52 = load i32, ptr @proto_mac_mgmt_msg_reg_req_decoder, align 4
  %53 = call ptr @add_protocol_subtree(ptr noundef nonnull %5, i32 noundef %51, ptr noundef %10, i32 noundef %52, ptr noundef %0, i32 noundef %.0103, i32 noundef %13, ptr noundef nonnull @.str.220)
  %54 = call ptr @tvb_new_subset_length(ptr noundef %0, i32 noundef %25, i32 noundef %13)
  call void @wimax_service_flow_encodings_decoder(ptr noundef %54, ptr noundef %1, ptr noundef %53)
  br label %71

55:                                               ; preds = %23
  %56 = load i32, ptr @ett_mac_mgmt_msg_reg_req_decoder, align 4
  %57 = load i32, ptr @proto_mac_mgmt_msg_reg_req_decoder, align 4
  %58 = call ptr @add_protocol_subtree(ptr noundef nonnull %5, i32 noundef %56, ptr noundef %10, i32 noundef %57, ptr noundef %0, i32 noundef %.0103, i32 noundef %13, ptr noundef nonnull @.str.221)
  %59 = call ptr @tvb_new_subset_length(ptr noundef %0, i32 noundef %25, i32 noundef %13)
  call void @wimax_service_flow_encodings_decoder(ptr noundef %59, ptr noundef %1, ptr noundef %58)
  br label %71

60:                                               ; preds = %23
  %61 = load i32, ptr @ett_mac_mgmt_msg_reg_req_decoder, align 4
  %62 = load i32, ptr @proto_mac_mgmt_msg_reg_req_decoder, align 4
  %63 = call ptr @add_protocol_subtree(ptr noundef nonnull %5, i32 noundef %61, ptr noundef %10, i32 noundef %62, ptr noundef %0, i32 noundef %.0103, i32 noundef %13, ptr noundef nonnull @.str.222)
  call void @wimax_hmac_tuple_decoder(ptr noundef %63, ptr noundef %0, i32 noundef %25, i32 noundef %13)
  br label %71

64:                                               ; preds = %23
  %65 = load i32, ptr @ett_mac_mgmt_msg_reg_req_decoder, align 4
  %66 = load i32, ptr @proto_mac_mgmt_msg_reg_req_decoder, align 4
  %67 = call ptr @add_protocol_subtree(ptr noundef nonnull %5, i32 noundef %65, ptr noundef %10, i32 noundef %66, ptr noundef %0, i32 noundef %.0103, i32 noundef %13, ptr noundef nonnull @.str.223)
  call void @wimax_cmac_tuple_decoder(ptr noundef %67, ptr noundef %0, i32 noundef %25, i32 noundef %13)
  br label %71

68:                                               ; preds = %23
  %69 = load i32, ptr @hf_tlv_type, align 4
  %70 = call ptr @add_tlv_subtree(ptr noundef nonnull %5, ptr noundef %10, i32 noundef %69, ptr noundef %0, i32 noundef %.0103, i32 noundef 0)
  br label %71

71:                                               ; preds = %34, %35, %38, %68, %64, %60, %55, %50, %47, %44, %41, %31, %28, %26
  %.1 = phi i1 [ %.095102, %68 ], [ %.095102, %64 ], [ true, %60 ], [ %.095102, %55 ], [ %.095102, %50 ], [ %.095102, %47 ], [ %.095102, %44 ], [ %.095102, %41 ], [ %.095102, %35 ], [ %.095102, %38 ], [ %.095102, %31 ], [ %.095102, %28 ], [ %.095102, %26 ], [ %.095102, %34 ]
  %72 = add i32 %25, %13
  %73 = icmp ult i32 %72, %6
  br i1 %73, label %.lr.ph, label %.loopexit, !llvm.loop !10

.loopexit:                                        ; preds = %71
  br i1 %.1, label %74, label %.critedge

.critedge:                                        ; preds = %17, %4, %.loopexit
  call void (ptr, ptr, ...) @proto_item_append_text(ptr noundef %10, ptr noundef nonnull @.str.224)
  br label %74

74:                                               ; preds = %17, %.critedge, %.loopexit
  %75 = call i32 @tvb_captured_length(ptr noundef %0)
  call void @llvm.lifetime.end.p0(i64 12, ptr nonnull %5) #3
  ret i32 %75
}